; Function Attrs: mustprogress nofree norecurse nosync nounwind willreturn memory(argmem: read) uwtable
define noundef zeroext i1 @_Z18inputrecDynamicBoxPK10t_inputrec(ptr noundef readonly captures(none) %0) local_unnamed_addr #15 {
  %2 = getelementptr inbounds nuw i8, ptr %0, i64 204
  %3 = load i32, ptr %2, align 4, !tbaa !247
  %.not = icmp eq i32 %3, 0
  br i1 %.not, label %4, label %_Z14inputrecDeformPK10t_inputrec.exit

4:                                                ; preds = %1
  %5 = getelementptr inbounds nuw i8, ptr %0, i64 4
  %6 = load i32, ptr %5, align 4, !tbaa !265
  %7 = icmp eq i32 %6, 7
  br i1 %7, label %_Z14inputrecDeformPK10t_inputrec.exit, label %8

8:                                                ; preds = %4
  %9 = getelementptr inbounds nuw i8, ptr %0, i64 676
  %10 = load float, ptr %9, align 4, !tbaa !243
  %11 = fcmp une float %10, 0.000000e+00
  br i1 %11, label %_Z14inputrecDeformPK10t_inputrec.exit, label %12

12:                                               ; preds = %8
  %13 = getelementptr inbounds nuw i8, ptr %0, i64 688
  %14 = getelementptr inbounds nuw i8, ptr %0, i64 692
  %15 = load float, ptr %14, align 4, !tbaa !243
  %16 = fcmp une float %15, 0.000000e+00
  br i1 %16, label %_Z14inputrecDeformPK10t_inputrec.exit, label %17

17:                                               ; preds = %12
  %18 = getelementptr inbounds nuw i8, ptr %0, i64 700
  %19 = getelementptr inbounds nuw i8, ptr %0, i64 708
  %20 = load float, ptr %19, align 4, !tbaa !243
  %21 = fcmp une float %20, 0.000000e+00
  br i1 %21, label %_Z14inputrecDeformPK10t_inputrec.exit, label %22

22:                                               ; preds = %17
  %23 = load float, ptr %13, align 4, !tbaa !243
  %24 = fcmp une float %23, 0.000000e+00
  br i1 %24, label %_Z14inputrecDeformPK10t_inputrec.exit, label %25

25:                                               ; preds = %22
  %26 = load float, ptr %18, align 4, !tbaa !243
  %27 = fcmp une float %26, 0.000000e+00
  br i1 %27, label %_Z14inputrecDeformPK10t_inputrec.exit, label %28

28:                                               ; preds = %25
  %29 = getelementptr inbounds nuw i8, ptr %0, i64 704
  %30 = load float, ptr %29, align 4, !tbaa !243
  %31 = fcmp une float %30, 0.000000e+00
  br label %_Z14inputrecDeformPK10t_inputrec.exit

_Z14inputrecDeformPK10t_inputrec.exit:            ; preds = %28, %25, %22, %17, %12, %8, %4, %1
  %32 = phi i1 [ true, %4 ], [ true, %1 ], [ true, %25 ], [ true, %22 ], [ true, %17 ], [ true, %12 ], [ true, %8 ], [ %31, %28 ]
  ret i1 %32
}